target datalayout = "e-m:e-p270:32:32-p271:32:32-p272:64:64-i64:64-i128:128-f80:128-n8:16:32:64-S128"
target triple = "x86_64-pc-linux-gnu"

%struct._object = type { %union.anon, ptr }
%union.anon = type { i64 }
%struct.typealiasobject = type { %struct._object, ptr, ptr, ptr, ptr, ptr }

; Function Attrs: nounwind uwtable
define internal i32 @typealias_traverse(ptr noundef %0, ptr noundef %1, ptr noundef %2) #0 {
  %4 = alloca i32, align 4
  %5 = alloca ptr, align 8
  %6 = alloca ptr, align 8
  %7 = alloca ptr, align 8
  %8 = alloca i32, align 4
  %9 = alloca i32, align 4
  %10 = alloca i32, align 4
  %11 = alloca i32, align 4
  %12 = alloca i32, align 4
  store ptr %0, ptr %5, align 8, !tbaa !30
  store ptr %1, ptr %6, align 8, !tbaa !30
  store ptr %2, ptr %7, align 8, !tbaa !30
  br label %13

13:                                               ; preds = %3
  %14 = load ptr, ptr %5, align 8, !tbaa !30
  %15 = getelementptr inbounds nuw %struct.typealiasobject, ptr %14, i32 0, i32 2
  %16 = load ptr, ptr %15, align 8, !tbaa !140
  %17 = icmp ne ptr %16, null
  br i1 %17, label %18, label %33

18:                                               ; preds = %13
  call void @llvm.lifetime.start.p0(i64 4, ptr %8) #6
  %19 = load ptr, ptr %6, align 8, !tbaa !30
  %20 = load ptr, ptr %5, align 8, !tbaa !30
  %21 = getelementptr inbounds nuw %struct.typealiasobject, ptr %20, i32 0, i32 2
  %22 = load ptr, ptr %21, align 8, !tbaa !140
  %23 = load ptr, ptr %7, align 8, !tbaa !30
  %24 = call i32 %19(ptr noundef %22, ptr noundef %23)
  store i32 %24, ptr %8, align 4, !tbaa !13
  %25 = load i32, ptr %8, align 4, !tbaa !13
  %26 = icmp ne i32 %25, 0
  br i1 %26, label %27, label %29

27:                                               ; preds = %18
  %28 = load i32, ptr %8, align 4, !tbaa !13
  store i32 %28, ptr %4, align 4
  store i32 1, ptr %9, align 4
  br label %30

29:                                               ; preds = %18
  store i32 0, ptr %9, align 4
  br label %30

30:                                               ; preds = %29, %27
  call void @llvm.lifetime.end.p0(i64 4, ptr %8) #6
  %31 = load i32, ptr %9, align 4
  switch i32 %31, label %103 [
    i32 0, label %32
    i32 1, label %101
  ]

32:                                               ; preds = %30
  br label %33

33:                                               ; preds = %32, %13
  br label %34

34:                                               ; preds = %33
  br label %35

35:                                               ; preds = %34
  %36 = load ptr, ptr %5, align 8, !tbaa !30
  %37 = getelementptr inbounds nuw %struct.typealiasobject, ptr %36, i32 0, i32 3
  %38 = load ptr, ptr %37, align 8, !tbaa !141
  %39 = icmp ne ptr %38, null
  br i1 %39, label %40, label %55

40:                                               ; preds = %35
  call void @llvm.lifetime.start.p0(i64 4, ptr %10) #6
  %41 = load ptr, ptr %6, align 8, !tbaa !30
  %42 = load ptr, ptr %5, align 8, !tbaa !30
  %43 = getelementptr inbounds nuw %struct.typealiasobject, ptr %42, i32 0, i32 3
  %44 = load ptr, ptr %43, align 8, !tbaa !141
  %45 = load ptr, ptr %7, align 8, !tbaa !30
  %46 = call i32 %41(ptr noundef %44, ptr noundef %45)
  store i32 %46, ptr %10, align 4, !tbaa !13
  %47 = load i32, ptr %10, align 4, !tbaa !13
  %48 = icmp ne i32 %47, 0
  br i1 %48, label %49, label %51

49:                                               ; preds = %40
  %50 = load i32, ptr %10, align 4, !tbaa !13
  store i32 %50, ptr %4, align 4
  store i32 1, ptr %9, align 4
  br label %52

51:                                               ; preds = %40
  store i32 0, ptr %9, align 4
  br label %52

52:                                               ; preds = %51, %49
  call void @llvm.lifetime.end.p0(i64 4, ptr %10) #6
  %53 = load i32, ptr %9, align 4
  switch i32 %53, label %103 [
    i32 0, label %54
    i32 1, label %101
  ]

54:                                               ; preds = %52
  br label %55

55:                                               ; preds = %54, %35
  br label %56

56:                                               ; preds = %55
  br label %57

57:                                               ; preds = %56
  %58 = load ptr, ptr %5, align 8, !tbaa !30
  %59 = getelementptr inbounds nuw %struct.typealiasobject, ptr %58, i32 0, i32 4
  %60 = load ptr, ptr %59, align 8, !tbaa !142
  %61 = icmp ne ptr %60, null
  br i1 %61, label %62, label %77

62:                                               ; preds = %57
  call void @llvm.lifetime.start.p0(i64 4, ptr %11) #6
  %63 = load ptr, ptr %6, align 8, !tbaa !30
  %64 = load ptr, ptr %5, align 8, !tbaa !30
  %65 = getelementptr inbounds nuw %struct.typealiasobject, ptr %64, i32 0, i32 4
  %66 = load ptr, ptr %65, align 8, !tbaa !142
  %67 = load ptr, ptr %7, align 8, !tbaa !30
  %68 = call i32 %63(ptr noundef %66, ptr noundef %67)
  store i32 %68, ptr %11, align 4, !tbaa !13
  %69 = load i32, ptr %11, align 4, !tbaa !13
  %70 = icmp ne i32 %69, 0
  br i1 %70, label %71, label %73

71:                                               ; preds = %62
  %72 = load i32, ptr %11, align 4, !tbaa !13
  store i32 %72, ptr %4, align 4
  store i32 1, ptr %9, align 4
  br label %74

73:                                               ; preds = %62
  store i32 0, ptr %9, align 4
  br label %74

74:                                               ; preds = %73, %71
  call void @llvm.lifetime.end.p0(i64 4, ptr %11) #6
  %75 = load i32, ptr %9, align 4
  switch i32 %75, label %103 [
    i32 0, label %76
    i32 1, label %101
  ]

76:                                               ; preds = %74
  br label %77

77:                                               ; preds = %76, %57
  br label %78

78:                                               ; preds = %77
  br label %79

79:                                               ; preds = %78
  %80 = load ptr, ptr %5, align 8, !tbaa !30
  %81 = getelementptr inbounds nuw %struct.typealiasobject, ptr %80, i32 0, i32 5
  %82 = load ptr, ptr %81, align 8, !tbaa !143
  %83 = icmp ne ptr %82, null
  br i1 %83, label %84, label %99

84:                                               ; preds = %79
  call void @llvm.lifetime.start.p0(i64 4, ptr %12) #6
  %85 = load ptr, ptr %6, align 8, !tbaa !30
  %86 = load ptr, ptr %5, align 8, !tbaa !30
  %87 = getelementptr inbounds nuw %struct.typealiasobject, ptr %86, i32 0, i32 5
  %88 = load ptr, ptr %87, align 8, !tbaa !143
  %89 = load ptr, ptr %7, align 8, !tbaa !30
  %90 = call i32 %85(ptr noundef %88, ptr noundef %89)
  store i32 %90, ptr %12, align 4, !tbaa !13
  %91 = load i32, ptr %12, align 4, !tbaa !13
  %92 = icmp ne i32 %91, 0
  br i1 %92, label %93, label %95

93:                                               ; preds = %84
  %94 = load i32, ptr %12, align 4, !tbaa !13
  store i32 %94, ptr %4, align 4
  store i32 1, ptr %9, align 4
  br label %96

95:                                               ; preds = %84
  store i32 0, ptr %9, align 4
  br label %96

96:                                               ; preds = %95, %93
  call void @llvm.lifetime.end.p0(i64 4, ptr %12) #6
  %97 = load i32, ptr %9, align 4
  switch i32 %97, label %103 [
    i32 0, label %98
    i32 1, label %101
  ]

98:                                               ; preds = %96
  br label %99

99:                                               ; preds = %98, %79
  br label %100

100:                                              ; preds = %99
  store i32 0, ptr %4, align 4
  br label %101

101:                                              ; preds = %100, %96, %74, %52, %30
  %102 = load i32, ptr %4, align 4
  ret i32 %102

103:                                              ; preds = %96, %74, %52, %30
  unreachable
}