; Function Attrs: nounwind uwtable
define internal i32 @typealias_traverse(ptr noundef readonly captures(none) %0, ptr noundef readonly captures(none) %1, ptr noundef %2) #0 {
  %4 = getelementptr inbounds nuw i8, ptr %0, i64 24
  %5 = load ptr, ptr %4, align 8, !tbaa !134
  %.not = icmp eq ptr %5, null
  br i1 %.not, label %8, label %6

6:                                                ; preds = %3
  %7 = tail call i32 %1(ptr noundef nonnull %5, ptr noundef %2) #8
  %.not38.not = icmp eq i32 %7, 0
  br i1 %.not38.not, label %8, label %24

8:                                                ; preds = %6, %3
  %9 = getelementptr inbounds nuw i8, ptr %0, i64 32
  %10 = load ptr, ptr %9, align 8, !tbaa !135
  %.not39 = icmp eq ptr %10, null
  br i1 %.not39, label %13, label %11

11:                                               ; preds = %8
  %12 = tail call i32 %1(ptr noundef nonnull %10, ptr noundef %2) #8
  %.not40.not = icmp eq i32 %12, 0
  br i1 %.not40.not, label %13, label %24

13:                                               ; preds = %11, %8
  %14 = getelementptr inbounds nuw i8, ptr %0, i64 40
  %15 = load ptr, ptr %14, align 8, !tbaa !136
  %.not41 = icmp eq ptr %15, null
  br i1 %.not41, label %18, label %16

16:                                               ; preds = %13
  %17 = tail call i32 %1(ptr noundef nonnull %15, ptr noundef %2) #8
  %.not42.not = icmp eq i32 %17, 0
  br i1 %.not42.not, label %18, label %24

18:                                               ; preds = %16, %13
  %19 = getelementptr inbounds nuw i8, ptr %0, i64 48
  %20 = load ptr, ptr %19, align 8, !tbaa !137
  %.not43 = icmp eq ptr %20, null
  br i1 %.not43, label %23, label %21

21:                                               ; preds = %18
  %22 = tail call i32 %1(ptr noundef nonnull %20, ptr noundef %2) #8
  %.not44.not = icmp eq i32 %22, 0
  br i1 %.not44.not, label %23, label %24

23:                                               ; preds = %21, %18
  br label %24

24:                                               ; preds = %21, %16, %11, %6, %23
  %.1 = phi i32 [ %7, %6 ], [ %12, %11 ], [ %17, %16 ], [ %22, %21 ], [ 0, %23 ]
  ret i32 %.1
}